target datalayout = "e-m:e-p270:32:32-p271:32:32-p272:64:64-i64:64-i128:128-f80:128-n8:16:32:64-S128"
target triple = "x86_64-pc-linux-gnu"

%struct.WaitEventSet = type { ptr, i32, i32, ptr, ptr, i32, i8, i32, ptr }
%struct.Latch = type { i32, i32, i8, i32 }
%struct.WaitEvent = type { i32, i32, i32, ptr }

@.str.1 = private unnamed_addr constant [8 x i8] c"latch.c\00", align 1
@MyProcPid = external global i32, align 4
@.str.5 = private unnamed_addr constant [48 x i8] c"cannot wait on a latch owned by another process\00", align 1
@.str.10 = private unnamed_addr constant [26 x i8] c"cannot modify latch event\00", align 1
@__func__.ModifyWaitEvent = private unnamed_addr constant [16 x i8] c"ModifyWaitEvent\00", align 1
@.str.11 = private unnamed_addr constant [37 x i8] c"cannot modify postmaster death event\00", align 1

; Function Attrs: nounwind uwtable
define dso_local void @ModifyWaitEvent(ptr noundef %0, i32 noundef %1, i32 noundef %2, ptr noundef %3) #0 {
  %5 = alloca ptr, align 8
  %6 = alloca i32, align 4
  %7 = alloca i32, align 4
  %8 = alloca ptr, align 8
  %9 = alloca ptr, align 8
  %10 = alloca i32, align 4
  store ptr %0, ptr %5, align 8
  store i32 %1, ptr %6, align 4
  store i32 %2, ptr %7, align 4
  store ptr %3, ptr %8, align 8
  call void @llvm.lifetime.start.p0(i64 8, ptr %9) #9
  %11 = load ptr, ptr %5, align 8
  %12 = getelementptr inbounds nuw %struct.WaitEventSet, ptr %11, i32 0, i32 3
  %13 = load ptr, ptr %12, align 8
  %14 = load i32, ptr %6, align 4
  %15 = sext i32 %14 to i64
  %16 = getelementptr inbounds %struct.WaitEvent, ptr %13, i64 %15
  store ptr %16, ptr %9, align 8
  %17 = load i32, ptr %7, align 4
  %18 = load ptr, ptr %9, align 8
  %19 = getelementptr inbounds nuw %struct.WaitEvent, ptr %18, i32 0, i32 1
  %20 = load i32, ptr %19, align 4
  %21 = icmp eq i32 %17, %20
  br i1 %21, label %22, label %35

22:                                               ; preds = %4
  %23 = load ptr, ptr %9, align 8
  %24 = getelementptr inbounds nuw %struct.WaitEvent, ptr %23, i32 0, i32 1
  %25 = load i32, ptr %24, align 4
  %26 = and i32 %25, 1
  %27 = icmp ne i32 %26, 0
  br i1 %27, label %28, label %34

28:                                               ; preds = %22
  %29 = load ptr, ptr %5, align 8
  %30 = getelementptr inbounds nuw %struct.WaitEventSet, ptr %29, i32 0, i32 4
  %31 = load ptr, ptr %30, align 8
  %32 = load ptr, ptr %8, align 8
  %33 = icmp eq ptr %31, %32
  br i1 %33, label %34, label %35

34:                                               ; preds = %28, %22
  store i32 1, ptr %10, align 4
  br label %108

35:                                               ; preds = %28, %4
  %36 = load ptr, ptr %9, align 8
  %37 = getelementptr inbounds nuw %struct.WaitEvent, ptr %36, i32 0, i32 1
  %38 = load i32, ptr %37, align 4
  %39 = and i32 %38, 1
  %40 = icmp ne i32 %39, 0
  br i1 %40, label %41, label %58

41:                                               ; preds = %35
  %42 = load i32, ptr %7, align 4
  %43 = load ptr, ptr %9, align 8
  %44 = getelementptr inbounds nuw %struct.WaitEvent, ptr %43, i32 0, i32 1
  %45 = load i32, ptr %44, align 4
  %46 = icmp ne i32 %42, %45
  br i1 %46, label %47, label %58

47:                                               ; preds = %41
  br label %48

48:                                               ; preds = %47
  br i1 true, label %49, label %51

49:                                               ; preds = %48
  %50 = call zeroext i1 @errstart_cold(i32 noundef 21, ptr noundef null) #10
  br i1 %50, label %53, label %55

51:                                               ; preds = %48
  %52 = call zeroext i1 @errstart(i32 noundef 21, ptr noundef null)
  br i1 %52, label %53, label %55

53:                                               ; preds = %51, %49
  %54 = call i32 (ptr, ...) @errmsg_internal(ptr noundef @.str.10)
  call void @errfinish(ptr noundef @.str.1, i32 noundef 1070, ptr noundef @__func__.ModifyWaitEvent)
  br label %55

55:                                               ; preds = %53, %51, %49
  unreachable

56:                                               ; No predecessors!
  br label %57

57:                                               ; preds = %56
  br label %58

58:                                               ; preds = %57, %41, %35
  %59 = load ptr, ptr %9, align 8
  %60 = getelementptr inbounds nuw %struct.WaitEvent, ptr %59, i32 0, i32 1
  %61 = load i32, ptr %60, align 4
  %62 = and i32 %61, 16
  %63 = icmp ne i32 %62, 0
  br i1 %63, label %64, label %75

64:                                               ; preds = %58
  br label %65

65:                                               ; preds = %64
  br i1 true, label %66, label %68

66:                                               ; preds = %65
  %67 = call zeroext i1 @errstart_cold(i32 noundef 21, ptr noundef null) #10
  br i1 %67, label %70, label %72

68:                                               ; preds = %65
  %69 = call zeroext i1 @errstart(i32 noundef 21, ptr noundef null)
  br i1 %69, label %70, label %72

70:                                               ; preds = %68, %66
  %71 = call i32 (ptr, ...) @errmsg_internal(ptr noundef @.str.11)
  call void @errfinish(ptr noundef @.str.1, i32 noundef 1075, ptr noundef @__func__.ModifyWaitEvent)
  br label %72

72:                                               ; preds = %70, %68, %66
  unreachable

73:                                               ; No predecessors!
  br label %74

74:                                               ; preds = %73
  br label %75

75:                                               ; preds = %74, %58
  %76 = load i32, ptr %7, align 4
  %77 = load ptr, ptr %9, align 8
  %78 = getelementptr inbounds nuw %struct.WaitEvent, ptr %77, i32 0, i32 1
  store i32 %76, ptr %78, align 4
  %79 = load i32, ptr %7, align 4
  %80 = icmp eq i32 %79, 1
  br i1 %80, label %81, label %105

81:                                               ; preds = %75
  %82 = load ptr, ptr %8, align 8
  %83 = icmp ne ptr %82, null
  br i1 %83, label %84, label %101

84:                                               ; preds = %81
  %85 = load ptr, ptr %8, align 8
  %86 = getelementptr inbounds nuw %struct.Latch, ptr %85, i32 0, i32 3
  %87 = load i32, ptr %86, align 4
  %88 = load i32, ptr @MyProcPid, align 4
  %89 = icmp ne i32 %87, %88
  br i1 %89, label %90, label %101

90:                                               ; preds = %84
  br label %91

91:                                               ; preds = %90
  br i1 true, label %92, label %94

92:                                               ; preds = %91
  %93 = call zeroext i1 @errstart_cold(i32 noundef 21, ptr noundef null) #10
  br i1 %93, label %96, label %98

94:                                               ; preds = %91
  %95 = call zeroext i1 @errstart(i32 noundef 21, ptr noundef null)
  br i1 %95, label %96, label %98

96:                                               ; preds = %94, %92
  %97 = call i32 (ptr, ...) @errmsg_internal(ptr noundef @.str.5)
  call void @errfinish(ptr noundef @.str.1, i32 noundef 1084, ptr noundef @__func__.ModifyWaitEvent)
  br label %98

98:                                               ; preds = %96, %94, %92
  unreachable

99:                                               ; No predecessors!
  br label %100

100:                                              ; preds = %99
  br label %101

101:                                              ; preds = %100, %84, %81
  %102 = load ptr, ptr %8, align 8
  %103 = load ptr, ptr %5, align 8
  %104 = getelementptr inbounds nuw %struct.WaitEventSet, ptr %103, i32 0, i32 4
  store ptr %102, ptr %104, align 8
  store i32 1, ptr %10, align 4
  br label %108

105:                                              ; preds = %75
  %106 = load ptr, ptr %5, align 8
  %107 = load ptr, ptr %9, align 8
  call void @WaitEventAdjustEpoll(ptr noundef %106, ptr noundef %107, i32 noundef 3)
  store i32 0, ptr %10, align 4
  br label %108

108:                                              ; preds = %105, %101, %34
  call void @llvm.lifetime.end.p0(i64 8, ptr %9) #9
  %109 = load i32, ptr %10, align 4
  switch i32 %109, label %111 [
    i32 0, label %110
    i32 1, label %110
  ]

110:                                              ; preds = %108, %108
  ret void

111:                                              ; preds = %108
  unreachable
}