; Function Attrs: nounwind uwtable
define dso_local void @ModifyWaitEvent(ptr noundef captures(none) %0, i32 noundef %1, i32 noundef %2, ptr noundef %3) local_unnamed_addr #0 {
  %5 = getelementptr inbounds nuw i8, ptr %0, i64 16
  %6 = load ptr, ptr %5, align 8
  %7 = sext i32 %1 to i64
  %8 = getelementptr inbounds %struct.WaitEvent, ptr %6, i64 %7
  %9 = getelementptr inbounds nuw i8, ptr %8, i64 4
  %10 = load i32, ptr %9, align 4
  %11 = icmp eq i32 %2, %10
  br i1 %11, label %12, label %18

12:                                               ; preds = %4
  %13 = and i32 %2, 1
  %.not = icmp eq i32 %13, 0
  br i1 %.not, label %40, label %14

14:                                               ; preds = %12
  %15 = getelementptr inbounds nuw i8, ptr %0, i64 24
  %16 = load ptr, ptr %15, align 8
  %17 = icmp eq ptr %16, %3
  br i1 %17, label %40, label %.thread

18:                                               ; preds = %4
  %19 = and i32 %10, 1
  %.not20 = icmp eq i32 %19, 0
  br i1 %.not20, label %.thread, label %20

20:                                               ; preds = %18
  %21 = tail call zeroext i1 @errstart_cold(i32 noundef 21, ptr noundef null) #15
  tail call void @llvm.assume(i1 %21)
  %22 = tail call i32 (ptr, ...) @errmsg_internal(ptr noundef nonnull @.str.10) #14
  tail call void @errfinish(ptr noundef nonnull @.str.1, i32 noundef 1070, ptr noundef nonnull @__func__.ModifyWaitEvent) #14
  unreachable

.thread:                                          ; preds = %14, %18
  %23 = and i32 %10, 16
  %.not22 = icmp eq i32 %23, 0
  br i1 %.not22, label %27, label %24

24:                                               ; preds = %.thread
  %25 = tail call zeroext i1 @errstart_cold(i32 noundef 21, ptr noundef null) #15
  tail call void @llvm.assume(i1 %25)
  %26 = tail call i32 (ptr, ...) @errmsg_internal(ptr noundef nonnull @.str.11) #14
  tail call void @errfinish(ptr noundef nonnull @.str.1, i32 noundef 1075, ptr noundef nonnull @__func__.ModifyWaitEvent) #14
  unreachable

27:                                               ; preds = %.thread
  store i32 %2, ptr %9, align 4
  %28 = icmp eq i32 %2, 1
  br i1 %28, label %29, label %39

29:                                               ; preds = %27
  %.not23 = icmp eq ptr %3, null
  br i1 %.not23, label %37, label %30

30:                                               ; preds = %29
  %31 = getelementptr inbounds nuw i8, ptr %3, i64 12
  %32 = load i32, ptr %31, align 4
  %33 = load i32, ptr @MyProcPid, align 4
  %.not24 = icmp eq i32 %32, %33
  br i1 %.not24, label %37, label %34

34:                                               ; preds = %30
  %35 = tail call zeroext i1 @errstart_cold(i32 noundef 21, ptr noundef null) #15
  tail call void @llvm.assume(i1 %35)
  %36 = tail call i32 (ptr, ...) @errmsg_internal(ptr noundef nonnull @.str.5) #14
  tail call void @errfinish(ptr noundef nonnull @.str.1, i32 noundef 1084, ptr noundef nonnull @__func__.ModifyWaitEvent) #14
  unreachable

37:                                               ; preds = %30, %29
  %38 = getelementptr inbounds nuw i8, ptr %0, i64 24
  store ptr %3, ptr %38, align 8
  br label %40

39:                                               ; preds = %27
  tail call fastcc void @WaitEventAdjustEpoll(ptr noundef nonnull %0, ptr noundef nonnull %8, i32 noundef 3)
  br label %40

40:                                               ; preds = %12, %14, %39, %37
  ret void
}